target datalayout = "e-m:e-p270:32:32-p271:32:32-p272:64:64-i64:64-i128:128-f80:128-n8:16:32:64-S128"
target triple = "x86_64-pc-linux-gnu"

%struct.mbedtls_ecjpake_context = type { i32, %struct.mbedtls_ecp_group, i32, i32, %struct.mbedtls_ecp_point, %struct.mbedtls_ecp_point, %struct.mbedtls_ecp_point, %struct.mbedtls_ecp_point, %struct.mbedtls_ecp_point, %struct.mbedtls_mpi, %struct.mbedtls_mpi, %struct.mbedtls_mpi }
%struct.mbedtls_ecp_group = type { i32, %struct.mbedtls_mpi, %struct.mbedtls_mpi, %struct.mbedtls_mpi, %struct.mbedtls_ecp_point, %struct.mbedtls_mpi, i64, i64, i32, ptr, ptr, ptr, ptr, ptr, i64 }
%struct.mbedtls_ecp_point = type { %struct.mbedtls_mpi, %struct.mbedtls_mpi, %struct.mbedtls_mpi }
%struct.mbedtls_mpi = type { ptr, i16, i16 }

; Function Attrs: nounwind uwtable
define hidden void @mbedtls_ecjpake_free(ptr noundef %0) #0 {
  %2 = alloca ptr, align 8
  store ptr %0, ptr %2, align 8, !tbaa !3
  %3 = load ptr, ptr %2, align 8, !tbaa !3
  %4 = icmp eq ptr %3, null
  br i1 %4, label %5, label %6

5:                                                ; preds = %1
  br label %27

6:                                                ; preds = %1
  %7 = load ptr, ptr %2, align 8, !tbaa !3
  %8 = getelementptr inbounds nuw %struct.mbedtls_ecjpake_context, ptr %7, i32 0, i32 0
  store i32 0, ptr %8, align 8, !tbaa !8
  %9 = load ptr, ptr %2, align 8, !tbaa !3
  %10 = getelementptr inbounds nuw %struct.mbedtls_ecjpake_context, ptr %9, i32 0, i32 1
  call void @mbedtls_ecp_group_free(ptr noundef %10)
  %11 = load ptr, ptr %2, align 8, !tbaa !3
  %12 = getelementptr inbounds nuw %struct.mbedtls_ecjpake_context, ptr %11, i32 0, i32 4
  call void @mbedtls_ecp_point_free(ptr noundef %12)
  %13 = load ptr, ptr %2, align 8, !tbaa !3
  %14 = getelementptr inbounds nuw %struct.mbedtls_ecjpake_context, ptr %13, i32 0, i32 5
  call void @mbedtls_ecp_point_free(ptr noundef %14)
  %15 = load ptr, ptr %2, align 8, !tbaa !3
  %16 = getelementptr inbounds nuw %struct.mbedtls_ecjpake_context, ptr %15, i32 0, i32 6
  call void @mbedtls_ecp_point_free(ptr noundef %16)
  %17 = load ptr, ptr %2, align 8, !tbaa !3
  %18 = getelementptr inbounds nuw %struct.mbedtls_ecjpake_context, ptr %17, i32 0, i32 7
  call void @mbedtls_ecp_point_free(ptr noundef %18)
  %19 = load ptr, ptr %2, align 8, !tbaa !3
  %20 = getelementptr inbounds nuw %struct.mbedtls_ecjpake_context, ptr %19, i32 0, i32 8
  call void @mbedtls_ecp_point_free(ptr noundef %20)
  %21 = load ptr, ptr %2, align 8, !tbaa !3
  %22 = getelementptr inbounds nuw %struct.mbedtls_ecjpake_context, ptr %21, i32 0, i32 9
  call void @mbedtls_mpi_free(ptr noundef %22)
  %23 = load ptr, ptr %2, align 8, !tbaa !3
  %24 = getelementptr inbounds nuw %struct.mbedtls_ecjpake_context, ptr %23, i32 0, i32 10
  call void @mbedtls_mpi_free(ptr noundef %24)
  %25 = load ptr, ptr %2, align 8, !tbaa !3
  %26 = getelementptr inbounds nuw %struct.mbedtls_ecjpake_context, ptr %25, i32 0, i32 11
  call void @mbedtls_mpi_free(ptr noundef %26)
  br label %27

27:                                               ; preds = %6, %5
  ret void
}

; Function Attrs: nounwind uwtable
define hidden i32 @mbedtls_ecjpake_setup(ptr noundef %0, i32 noundef %1, i32 noundef %2, i32 noundef %3, ptr noundef %4, i64 noundef %5) #0 {
  %7 = alloca i32, align 4
  %8 = alloca ptr, align 8
  %9 = alloca i32, align 4
  %10 = alloca i32, align 4
  %11 = alloca i32, align 4
  %12 = alloca ptr, align 8
  %13 = alloca i64, align 8
  %14 = alloca i32, align 4
  %15 = alloca i32, align 4
  store ptr %0, ptr %8, align 8, !tbaa !3
  store i32 %1, ptr %9, align 4, !tbaa !19
  store i32 %2, ptr %10, align 4, !tbaa !19
  store i32 %3, ptr %11, align 4, !tbaa !19
  store ptr %4, ptr %12, align 8, !tbaa !20
  store i64 %5, ptr %13, align 8, !tbaa !22
  call void @llvm.lifetime.start.p0(i64 4, ptr %14) #9
  store i32 -110, ptr %14, align 4, !tbaa !19
  %16 = load i32, ptr %9, align 4, !tbaa !19
  %17 = icmp ne i32 %16, 0
  br i1 %17, label %18, label %22

18:                                               ; preds = %6
  %19 = load i32, ptr %9, align 4, !tbaa !19
  %20 = icmp ne i32 %19, 1
  br i1 %20, label %21, label %22

21:                                               ; preds = %18
  store i32 -20352, ptr %7, align 4
  store i32 1, ptr %15, align 4
  br label %62

22:                                               ; preds = %18, %6
  %23 = load i32, ptr %9, align 4, !tbaa !19
  %24 = load ptr, ptr %8, align 8, !tbaa !3
  %25 = getelementptr inbounds nuw %struct.mbedtls_ecjpake_context, ptr %24, i32 0, i32 2
  store i32 %23, ptr %25, align 8, !tbaa !23
  %26 = load i32, ptr %10, align 4, !tbaa !19
  %27 = call ptr @mbedtls_md_info_from_type(i32 noundef %26)
  %28 = icmp eq ptr %27, null
  br i1 %28, label %29, label %30

29:                                               ; preds = %22
  store i32 -20608, ptr %7, align 4
  store i32 1, ptr %15, align 4
  br label %62

30:                                               ; preds = %22
  %31 = load i32, ptr %10, align 4, !tbaa !19
  %32 = load ptr, ptr %8, align 8, !tbaa !3
  %33 = getelementptr inbounds nuw %struct.mbedtls_ecjpake_context, ptr %32, i32 0, i32 0
  store i32 %31, ptr %33, align 8, !tbaa !8
  br label %34

34:                                               ; preds = %30
  %35 = load ptr, ptr %8, align 8, !tbaa !3
  %36 = getelementptr inbounds nuw %struct.mbedtls_ecjpake_context, ptr %35, i32 0, i32 1
  %37 = load i32, ptr %11, align 4, !tbaa !19
  %38 = call i32 @mbedtls_ecp_group_load(ptr noundef %36, i32 noundef %37)
  store i32 %38, ptr %14, align 4, !tbaa !19
  %39 = icmp ne i32 %38, 0
  br i1 %39, label %40, label %41

40:                                               ; preds = %34
  br label %55

41:                                               ; preds = %34
  br label %42

42:                                               ; preds = %41
  br label %43

43:                                               ; preds = %42
  br label %44

44:                                               ; preds = %43
  %45 = load ptr, ptr %8, align 8, !tbaa !3
  %46 = getelementptr inbounds nuw %struct.mbedtls_ecjpake_context, ptr %45, i32 0, i32 11
  %47 = load ptr, ptr %12, align 8, !tbaa !20
  %48 = load i64, ptr %13, align 8, !tbaa !22
  %49 = call i32 @mbedtls_mpi_read_binary(ptr noundef %46, ptr noundef %47, i64 noundef %48)
  store i32 %49, ptr %14, align 4, !tbaa !19
  %50 = icmp ne i32 %49, 0
  br i1 %50, label %51, label %52

51:                                               ; preds = %44
  br label %55

52:                                               ; preds = %44
  br label %53

53:                                               ; preds = %52
  br label %54

54:                                               ; preds = %53
  br label %55

55:                                               ; preds = %54, %51, %40
  %56 = load i32, ptr %14, align 4, !tbaa !19
  %57 = icmp ne i32 %56, 0
  br i1 %57, label %58, label %60

58:                                               ; preds = %55
  %59 = load ptr, ptr %8, align 8, !tbaa !3
  call void @mbedtls_ecjpake_free(ptr noundef %59)
  br label %60

60:                                               ; preds = %58, %55
  %61 = load i32, ptr %14, align 4, !tbaa !19
  store i32 %61, ptr %7, align 4
  store i32 1, ptr %15, align 4
  br label %62

62:                                               ; preds = %60, %29, %21
  call void @llvm.lifetime.end.p0(i64 4, ptr %14) #9
  %63 = load i32, ptr %7, align 4
  ret i32 %63
}