; Function Attrs: nounwind uwtable
define hidden i32 @mbedtls_ecjpake_setup(ptr noundef %0, i32 noundef %1, i32 noundef %2, i32 noundef %3, ptr noundef %4, i64 noundef %5) local_unnamed_addr #0 {
  %or.cond = icmp ugt i32 %1, 1
  br i1 %or.cond, label %25, label %7

7:                                                ; preds = %6
  %8 = getelementptr inbounds nuw i8, ptr %0, i64 200
  store i32 %1, ptr %8, align 8, !tbaa !17
  %9 = tail call ptr @mbedtls_md_info_from_type(i32 noundef %2) #15
  %10 = icmp eq ptr %9, null
  br i1 %10, label %25, label %11

11:                                               ; preds = %7
  store i32 %2, ptr %0, align 8, !tbaa !3
  %12 = getelementptr inbounds nuw i8, ptr %0, i64 8
  %13 = tail call i32 @mbedtls_ecp_group_load(ptr noundef nonnull %12, i32 noundef %3) #15
  %.not = icmp eq i32 %13, 0
  br i1 %.not, label %14, label %mbedtls_ecjpake_free.exit

14:                                               ; preds = %11
  %15 = getelementptr inbounds nuw i8, ptr %0, i64 480
  %16 = tail call i32 @mbedtls_mpi_read_binary(ptr noundef nonnull %15, ptr noundef %4, i64 noundef %5) #15
  %.not18 = icmp eq i32 %16, 0
  br i1 %.not18, label %25, label %mbedtls_ecjpake_free.exit

mbedtls_ecjpake_free.exit:                        ; preds = %11, %14
  %.021 = phi i32 [ %16, %14 ], [ %13, %11 ]
  store i32 0, ptr %0, align 8, !tbaa !3
  tail call void @mbedtls_ecp_group_free(ptr noundef nonnull %12) #15
  %17 = getelementptr inbounds nuw i8, ptr %0, i64 208
  tail call void @mbedtls_ecp_point_free(ptr noundef nonnull %17) #15
  %18 = getelementptr inbounds nuw i8, ptr %0, i64 256
  tail call void @mbedtls_ecp_point_free(ptr noundef nonnull %18) #15
  %19 = getelementptr inbounds nuw i8, ptr %0, i64 304
  tail call void @mbedtls_ecp_point_free(ptr noundef nonnull %19) #15
  %20 = getelementptr inbounds nuw i8, ptr %0, i64 352
  tail call void @mbedtls_ecp_point_free(ptr noundef nonnull %20) #15
  %21 = getelementptr inbounds nuw i8, ptr %0, i64 400
  tail call void @mbedtls_ecp_point_free(ptr noundef nonnull %21) #15
  %22 = getelementptr inbounds nuw i8, ptr %0, i64 448
  tail call void @mbedtls_mpi_free(ptr noundef nonnull %22) #15
  %23 = getelementptr inbounds nuw i8, ptr %0, i64 464
  tail call void @mbedtls_mpi_free(ptr noundef nonnull %23) #15
  %24 = getelementptr inbounds nuw i8, ptr %0, i64 480
  tail call void @mbedtls_mpi_free(ptr noundef nonnull %24) #15
  br label %25

25:                                               ; preds = %14, %mbedtls_ecjpake_free.exit, %7, %6
  %.016 = phi i32 [ -20352, %6 ], [ -20608, %7 ], [ %.021, %mbedtls_ecjpake_free.exit ], [ 0, %14 ]
  ret i32 %.016
}